; Function Attrs: mustprogress nounwind uwtable
define void @_ZN3fmt3v114file4dup2EiRSt10error_code(ptr noundef nonnull readonly align 4 captures(none) dereferenceable(4) %0, i32 noundef %1, ptr noundef nonnull writeonly align 8 captures(none) dereferenceable(16) %2) local_unnamed_addr #0 align 2 {
  br label %4

4:                                                ; preds = %8, %3
  %5 = load i32, ptr %0, align 4, !tbaa !22
  %6 = tail call i32 @dup2(i32 noundef %5, i32 noundef %1) #17
  %7 = icmp eq i32 %6, -1
  br i1 %7, label %8, label %.critedge4

8:                                                ; preds = %4
  %9 = tail call ptr @__errno_location() #16
  %10 = load i32, ptr %9, align 4, !tbaa !9
  %11 = icmp eq i32 %10, 4
  br i1 %11, label %4, label %.critedge, !llvm.loop !57

.critedge:                                        ; preds = %8
  %12 = tail call noundef nonnull align 8 dereferenceable(8) ptr @_ZNSt3_V216generic_categoryEv() #16
  store i32 %10, ptr %2, align 8, !tbaa !9
  %.sroa.45.0..sroa_idx = getelementptr inbounds nuw i8, ptr %2, i64 8
  store ptr %12, ptr %.sroa.45.0..sroa_idx, align 8, !tbaa !58
  br label %.critedge4

.critedge4:                                       ; preds = %4, %.critedge
  ret void
}